; Function Attrs: mustprogress uwtable
define noundef i32 @_ZNK6google8protobuf11MessageLite13GetCachedSizeEv(ptr noundef nonnull align 8 dereferenceable(16) %this) local_unnamed_addr #3 align 2 {
entry:
  %vtable.i = load ptr, ptr %this, align 8
  %vfn.i = getelementptr inbounds i8, ptr %vtable.i, i64 64
  %0 = load ptr, ptr %vfn.i, align 8
  %call.i = tail call noundef ptr %0(ptr noundef nonnull align 8 dereferenceable(16) %this)
  %cached_size_offset.i = getelementptr inbounds i8, ptr %call.i, i64 8
  %1 = load i32, ptr %cached_size_offset.i, align 8
  %idx.ext.i = zext i32 %1 to i64
  %add.ptr.i = getelementptr inbounds i8, ptr %this, i64 %idx.ext.i
  %2 = load atomic i32, ptr %add.ptr.i monotonic, align 4
  ret i32 %2
}